target datalayout = "e-m:e-p270:32:32-p271:32:32-p272:64:64-i64:64-i128:128-f80:128-n8:16:32:64-S128"
target triple = "x86_64-pc-linux-gnu"

%"struct.vcpkg::StringView" = type { ptr, i64 }
%"struct.vcpkg::MessageLine" = type { %"class.std::vector" }
%"class.std::vector" = type { %"struct.std::_Vector_base" }
%"struct.std::_Vector_base" = type { %"struct.std::_Vector_base<vcpkg::MessageLineSegment, std::allocator<vcpkg::MessageLineSegment>>::_Vector_impl" }
%"struct.std::_Vector_base<vcpkg::MessageLineSegment, std::allocator<vcpkg::MessageLineSegment>>::_Vector_impl" = type { %"struct.std::_Vector_base<vcpkg::MessageLineSegment, std::allocator<vcpkg::MessageLineSegment>>::_Vector_impl_data" }
%"struct.std::_Vector_base<vcpkg::MessageLineSegment, std::allocator<vcpkg::MessageLineSegment>>::_Vector_impl_data" = type { ptr, ptr, ptr }

; Function Attrs: mustprogress nounwind uwtable
define linkonce_odr dso_local void @_ZNSt15__new_allocatorIN5vcpkg18MessageLineSegmentEEC2Ev(ptr noundef nonnull align 1 dereferenceable(1) %0) unnamed_addr #1 comdat align 2 {
  %2 = alloca ptr, align 8
  store ptr %0, ptr %2, align 8, !tbaa !106
  ret void
}

; Function Attrs: mustprogress nounwind uwtable
define linkonce_odr dso_local void @_ZNSt12_Vector_baseIN5vcpkg18MessageLineSegmentESaIS1_EE17_Vector_impl_dataC2Ev(ptr noundef nonnull align 8 dereferenceable(24) %0) unnamed_addr #1 comdat align 2 {
  %2 = alloca ptr, align 8
  store ptr %0, ptr %2, align 8, !tbaa !103
  %3 = load ptr, ptr %2, align 8
  %4 = getelementptr inbounds nuw %"struct.std::_Vector_base<vcpkg::MessageLineSegment, std::allocator<vcpkg::MessageLineSegment>>::_Vector_impl_data", ptr %3, i32 0, i32 0
  store ptr null, ptr %4, align 8, !tbaa !24
  %5 = getelementptr inbounds nuw %"struct.std::_Vector_base<vcpkg::MessageLineSegment, std::allocator<vcpkg::MessageLineSegment>>::_Vector_impl_data", ptr %3, i32 0, i32 1
  store ptr null, ptr %5, align 8, !tbaa !26
  %6 = getelementptr inbounds nuw %"struct.std::_Vector_base<vcpkg::MessageLineSegment, std::allocator<vcpkg::MessageLineSegment>>::_Vector_impl_data", ptr %3, i32 0, i32 2
  store ptr null, ptr %6, align 8, !tbaa !105
  ret void
}

; Function Attrs: mustprogress nounwind uwtable
define linkonce_odr dso_local void @_ZNSaIN5vcpkg18MessageLineSegmentEEC2Ev(ptr noundef nonnull align 1 dereferenceable(1) %0) unnamed_addr #1 comdat align 2 {
  %2 = alloca ptr, align 8
  store ptr %0, ptr %2, align 8, !tbaa !101
  %3 = load ptr, ptr %2, align 8
  call void @_ZNSt15__new_allocatorIN5vcpkg18MessageLineSegmentEEC2Ev(ptr noundef nonnull align 1 dereferenceable(1) %3) #18
  ret void
}

; Function Attrs: mustprogress nounwind uwtable
define linkonce_odr dso_local void @_ZNSt12_Vector_baseIN5vcpkg18MessageLineSegmentESaIS1_EE12_Vector_implC2Ev(ptr noundef nonnull align 8 dereferenceable(24) %0) unnamed_addr #1 comdat align 2 {
  %2 = alloca ptr, align 8
  store ptr %0, ptr %2, align 8, !tbaa !99
  %3 = load ptr, ptr %2, align 8
  call void @_ZNSaIN5vcpkg18MessageLineSegmentEEC2Ev(ptr noundef nonnull align 1 dereferenceable(1) %3) #18
  call void @_ZNSt12_Vector_baseIN5vcpkg18MessageLineSegmentESaIS1_EE17_Vector_impl_dataC2Ev(ptr noundef nonnull align 8 dereferenceable(24) %3) #18
  ret void
}

; Function Attrs: mustprogress nounwind uwtable
define linkonce_odr dso_local void @_ZNSt12_Vector_baseIN5vcpkg18MessageLineSegmentESaIS1_EEC2Ev(ptr noundef nonnull align 8 dereferenceable(24) %0) unnamed_addr #1 comdat align 2 {
  %2 = alloca ptr, align 8
  store ptr %0, ptr %2, align 8, !tbaa !97
  %3 = load ptr, ptr %2, align 8
  %4 = getelementptr inbounds nuw %"struct.std::_Vector_base", ptr %3, i32 0, i32 0
  call void @_ZNSt12_Vector_baseIN5vcpkg18MessageLineSegmentESaIS1_EE12_Vector_implC2Ev(ptr noundef nonnull align 8 dereferenceable(24) %4) #18
  ret void
}

; Function Attrs: mustprogress nounwind uwtable
define linkonce_odr dso_local void @_ZNSt6vectorIN5vcpkg18MessageLineSegmentESaIS1_EEC2Ev(ptr noundef nonnull align 8 dereferenceable(24) %0) unnamed_addr #1 comdat align 2 {
  %2 = alloca ptr, align 8
  store ptr %0, ptr %2, align 8, !tbaa !18
  %3 = load ptr, ptr %2, align 8
  call void @_ZNSt12_Vector_baseIN5vcpkg18MessageLineSegmentESaIS1_EEC2Ev(ptr noundef nonnull align 8 dereferenceable(24) %3) #18
  ret void
}

; Function Attrs: mustprogress nounwind uwtable
define linkonce_odr dso_local void @_ZN5vcpkg11MessageLineC2Ev(ptr noundef nonnull align 8 dereferenceable(24) %0) unnamed_addr #1 comdat align 2 {
  %2 = alloca ptr, align 8
  store ptr %0, ptr %2, align 8, !tbaa !4
  %3 = load ptr, ptr %2, align 8
  %4 = getelementptr inbounds nuw %"struct.vcpkg::MessageLine", ptr %3, i32 0, i32 0
  call void @_ZNSt6vectorIN5vcpkg18MessageLineSegmentESaIS1_EEC2Ev(ptr noundef nonnull align 8 dereferenceable(24) %4) #18
  ret void
}

; Function Attrs: mustprogress uwtable
define dso_local void @_ZN5vcpkg11MessageSink7printlnERKNS_15LocalizedStringE(ptr noundef nonnull align 8 dereferenceable(8) %0, ptr noundef nonnull align 8 dereferenceable(32) %1) unnamed_addr #0 align 2 personality ptr @__gxx_personality_v0 {
  %3 = alloca ptr, align 8
  %4 = alloca ptr, align 8
  %5 = alloca %"struct.vcpkg::MessageLine", align 8
  %6 = alloca %"struct.vcpkg::StringView", align 8
  %7 = alloca ptr, align 8
  %8 = alloca i32, align 4
  store ptr %0, ptr %3, align 8, !tbaa !40
  store ptr %1, ptr %4, align 8, !tbaa !9
  %9 = load ptr, ptr %3, align 8
  call void @llvm.lifetime.start.p0(i64 24, ptr %5) #18
  call void @_ZN5vcpkg11MessageLineC2Ev(ptr noundef nonnull align 8 dereferenceable(24) %5) #18
  %10 = load ptr, ptr %4, align 8, !tbaa !9
  %11 = call { ptr, i64 } @_ZNK5vcpkg15LocalizedStringcvNS_10StringViewEEv(ptr noundef nonnull align 8 dereferenceable(32) %10) #18
  %12 = getelementptr inbounds nuw { ptr, i64 }, ptr %6, i32 0, i32 0
  %13 = extractvalue { ptr, i64 } %11, 0
  store ptr %13, ptr %12, align 8
  %14 = getelementptr inbounds nuw { ptr, i64 }, ptr %6, i32 0, i32 1
  %15 = extractvalue { ptr, i64 } %11, 1
  store i64 %15, ptr %14, align 8
  %16 = getelementptr inbounds nuw { ptr, i64 }, ptr %6, i32 0, i32 0
  %17 = load ptr, ptr %16, align 8
  %18 = getelementptr inbounds nuw { ptr, i64 }, ptr %6, i32 0, i32 1
  %19 = load i64, ptr %18, align 8
  invoke void @_ZN5vcpkg11MessageLine5printENS_5ColorENS_10StringViewE(ptr noundef nonnull align 8 dereferenceable(24) %5, i8 noundef signext 0, ptr %17, i64 %19)
          to label %20 unwind label %25

20:                                               ; preds = %2
  %21 = load ptr, ptr %9, align 8, !tbaa !42
  %22 = getelementptr inbounds ptr, ptr %21, i64 0
  %23 = load ptr, ptr %22, align 8
  invoke void %23(ptr noundef nonnull align 8 dereferenceable(8) %9, ptr noundef nonnull align 8 dereferenceable(24) %5)
          to label %24 unwind label %25

24:                                               ; preds = %20
  call void @_ZN5vcpkg11MessageLineD2Ev(ptr noundef nonnull align 8 dereferenceable(24) %5) #18
  call void @llvm.lifetime.end.p0(i64 24, ptr %5) #18
  ret void

25:                                               ; preds = %20, %2
  %26 = landingpad { ptr, i32 }
          cleanup
  %27 = extractvalue { ptr, i32 } %26, 0
  store ptr %27, ptr %7, align 8
  %28 = extractvalue { ptr, i32 } %26, 1
  store i32 %28, ptr %8, align 4
  call void @_ZN5vcpkg11MessageLineD2Ev(ptr noundef nonnull align 8 dereferenceable(24) %5) #18
  call void @llvm.lifetime.end.p0(i64 24, ptr %5) #18
  br label %29

29:                                               ; preds = %25
  %30 = load ptr, ptr %7, align 8
  %31 = load i32, ptr %8, align 4
  %32 = insertvalue { ptr, i32 } poison, ptr %30, 0
  %33 = insertvalue { ptr, i32 } %32, i32 %31, 1
  resume { ptr, i32 } %33
}