; Function Attrs: mustprogress uwtable
define dso_local void @_ZN5vcpkg11MessageSink7printlnERKNS_15LocalizedStringE(ptr noundef nonnull align 8 dereferenceable(8) %0, ptr noundef nonnull align 8 dereferenceable(32) %1) unnamed_addr #0 align 2 personality ptr @__gxx_personality_v0 {
  %3 = alloca %"struct.vcpkg::MessageLine", align 8
  call void @llvm.lifetime.start.p0(i64 24, ptr nonnull %3) #21
  call void @llvm.memset.p0.i64(ptr noundef nonnull align 8 dereferenceable(24) %3, i8 0, i64 24, i1 false)
  %4 = tail call { ptr, i64 } @_ZNK5vcpkg15LocalizedStringcvNS_10StringViewEEv(ptr noundef nonnull align 8 dereferenceable(32) %1) #21
  %5 = extractvalue { ptr, i64 } %4, 0
  %6 = extractvalue { ptr, i64 } %4, 1
  invoke void @_ZN5vcpkg11MessageLine5printENS_5ColorENS_10StringViewE(ptr noundef nonnull align 8 dereferenceable(24) %3, i8 noundef signext 0, ptr %5, i64 %6)
          to label %7 unwind label %31

7:                                                ; preds = %2
  %8 = load ptr, ptr %0, align 8, !tbaa !30
  %9 = load ptr, ptr %8, align 8
  invoke void %9(ptr noundef nonnull align 8 dereferenceable(8) %0, ptr noundef nonnull align 8 dereferenceable(24) %3)
          to label %10 unwind label %31

10:                                               ; preds = %7
  %11 = load ptr, ptr %3, align 8, !tbaa !23
  %12 = getelementptr inbounds nuw i8, ptr %3, i64 8
  %13 = load ptr, ptr %12, align 8, !tbaa !19
  %.not4.i.i.i.i.i = icmp eq ptr %11, %13
  br i1 %.not4.i.i.i.i.i, label %_ZSt8_DestroyIPN5vcpkg18MessageLineSegmentES1_EvT_S3_RSaIT0_E.exit.i.i, label %.lr.ph.i.i.i.i.i

.lr.ph.i.i.i.i.i:                                 ; preds = %10, %_ZSt8_DestroyIN5vcpkg18MessageLineSegmentEEvPT_.exit.i.i.i.i.i
  %.05.i.i.i.i.i = phi ptr [ %23, %_ZSt8_DestroyIN5vcpkg18MessageLineSegmentEEvPT_.exit.i.i.i.i.i ], [ %11, %10 ]
  %14 = getelementptr inbounds nuw i8, ptr %.05.i.i.i.i.i, i64 8
  %15 = load ptr, ptr %14, align 8, !tbaa !15
  %16 = getelementptr inbounds nuw i8, ptr %.05.i.i.i.i.i, i64 24
  %17 = icmp eq ptr %15, %16
  br i1 %17, label %_ZNKSt7__cxx1112basic_stringIcSt11char_traitsIcESaIcEE11_M_is_localEv.exit.thread.i.i.i.i.i.i.i.i.i, label %_ZNKSt7__cxx1112basic_stringIcSt11char_traitsIcESaIcEE11_M_is_localEv.exit.i.i.i.i.i.i.i.i.i

_ZNKSt7__cxx1112basic_stringIcSt11char_traitsIcESaIcEE11_M_is_localEv.exit.thread.i.i.i.i.i.i.i.i.i: ; preds = %.lr.ph.i.i.i.i.i
  %18 = getelementptr inbounds nuw i8, ptr %.05.i.i.i.i.i, i64 16
  %19 = load i64, ptr %18, align 8, !tbaa !16
  %20 = icmp ult i64 %19, 16
  call void @llvm.assume(i1 %20)
  br label %_ZSt8_DestroyIN5vcpkg18MessageLineSegmentEEvPT_.exit.i.i.i.i.i

_ZNKSt7__cxx1112basic_stringIcSt11char_traitsIcESaIcEE11_M_is_localEv.exit.i.i.i.i.i.i.i.i.i: ; preds = %.lr.ph.i.i.i.i.i
  %21 = load i64, ptr %16, align 8, !tbaa !18
  %22 = add i64 %21, 1
  call void @_ZdlPvm(ptr noundef %15, i64 noundef %22) #22
  br label %_ZSt8_DestroyIN5vcpkg18MessageLineSegmentEEvPT_.exit.i.i.i.i.i

_ZSt8_DestroyIN5vcpkg18MessageLineSegmentEEvPT_.exit.i.i.i.i.i: ; preds = %_ZNKSt7__cxx1112basic_stringIcSt11char_traitsIcESaIcEE11_M_is_localEv.exit.i.i.i.i.i.i.i.i.i, %_ZNKSt7__cxx1112basic_stringIcSt11char_traitsIcESaIcEE11_M_is_localEv.exit.thread.i.i.i.i.i.i.i.i.i
  %23 = getelementptr inbounds nuw i8, ptr %.05.i.i.i.i.i, i64 40
  %.not.i.i.i.i.i = icmp eq ptr %23, %13
  br i1 %.not.i.i.i.i.i, label %_ZSt8_DestroyIPN5vcpkg18MessageLineSegmentES1_EvT_S3_RSaIT0_E.exitthread-pre-split.i.i, label %.lr.ph.i.i.i.i.i, !llvm.loop !24

_ZSt8_DestroyIPN5vcpkg18MessageLineSegmentES1_EvT_S3_RSaIT0_E.exitthread-pre-split.i.i: ; preds = %_ZSt8_DestroyIN5vcpkg18MessageLineSegmentEEvPT_.exit.i.i.i.i.i
  %.pr.i.i = load ptr, ptr %3, align 8, !tbaa !23
  br label %_ZSt8_DestroyIPN5vcpkg18MessageLineSegmentES1_EvT_S3_RSaIT0_E.exit.i.i

_ZSt8_DestroyIPN5vcpkg18MessageLineSegmentES1_EvT_S3_RSaIT0_E.exit.i.i: ; preds = %_ZSt8_DestroyIPN5vcpkg18MessageLineSegmentES1_EvT_S3_RSaIT0_E.exitthread-pre-split.i.i, %10
  %24 = phi ptr [ %.pr.i.i, %_ZSt8_DestroyIPN5vcpkg18MessageLineSegmentES1_EvT_S3_RSaIT0_E.exitthread-pre-split.i.i ], [ %11, %10 ]
  %.not.i.i.i.i = icmp eq ptr %24, null
  br i1 %.not.i.i.i.i, label %_ZN5vcpkg11MessageLineD2Ev.exit, label %25

25:                                               ; preds = %_ZSt8_DestroyIPN5vcpkg18MessageLineSegmentES1_EvT_S3_RSaIT0_E.exit.i.i
  %26 = getelementptr inbounds nuw i8, ptr %3, i64 16
  %27 = load ptr, ptr %26, align 8, !tbaa !22
  %28 = ptrtoint ptr %27 to i64
  %29 = ptrtoint ptr %24 to i64
  %30 = sub i64 %28, %29
  call void @_ZdlPvm(ptr noundef nonnull %24, i64 noundef %30) #22
  br label %_ZN5vcpkg11MessageLineD2Ev.exit

_ZN5vcpkg11MessageLineD2Ev.exit:                  ; preds = %_ZSt8_DestroyIPN5vcpkg18MessageLineSegmentES1_EvT_S3_RSaIT0_E.exit.i.i, %25
  call void @llvm.lifetime.end.p0(i64 24, ptr nonnull %3) #21
  ret void

31:                                               ; preds = %7, %2
  %32 = landingpad { ptr, i32 }
          cleanup
  call void @_ZN5vcpkg11MessageLineD2Ev(ptr noundef nonnull align 8 dereferenceable(24) %3) #21
  call void @llvm.lifetime.end.p0(i64 24, ptr nonnull %3) #21
  resume { ptr, i32 } %32
}